(lp0
(dp1
S'head_position'
p2
(I80
I37
tp3
sS'speakers'
p4
(lp5
I00
aI00
aI00
aI00
aI00
aI00
asS'mute'
p6
I01
sS'base_url'
p7
S'/track/0/'
p8
sS'inputs'
p9
(lp10
I01
aI01
aI00
aI00
asS'master'
p11
I61
sa(dp12
g2
(I45
I30
tp13
sg4
(lp14
I00
aI00
aI00
aI00
aI00
aI00
asg6
I01
sg7
S'/track/1/'
p15
sg9
(lp16
I01
aI01
aI00
aI00
asg11
I61
sa(dp17
g2
(I65
I67
tp18
sg4
(lp19
I00
aI00
aI00
aI00
aI00
aI00
asg6
I01
sg7
S'/track/2/'
p20
sg9
(lp21
I01
aI01
aI00
aI00
asg11
I74
sa(dp22
g2
(I66
I51
tp23
sg4
(lp24
I01
aI01
aI00
aI00
aI00
aI00
asg6
I01
sg7
S'/track/3/'
p25
sg9
(lp26
I00
aI01
aI01
aI01
asg11
I95
sa(dp27
g2
(I66
I58
tp28
sg4
(lp29
I00
aI00
aI00
aI00
aI00
aI00
asg6
I01
sg7
S'/track/4/'
p30
sg9
(lp31
I01
aI00
aI01
aI01
asg11
I95
sa(dp32
g2
(I65
I50
tp33
sg4
(lp34
I01
aI01
aI01
aI01
aI01
aI01
asg6
I01
sg7
S'/track/5/'
p35
sg9
(lp36
I00
aI00
aI00
aI00
asg11
I5
sa.