(lp0
(lp1
(dp2
S'head_position'
p3
(I88
I32
tp4
sS'speakers'
p5
(lp6
I01
aI01
aI00
aI00
aI01
aI01
asS'mute'
p7
I01
sS'base_url'
p8
S'/HexaTrack_01'
p9
sS'inputs'
p10
(lp11
I01
aI00
aI00
aI01
asS'master'
p12
I53
sa(dp13
g3
(I65
I50
tp14
sg5
(lp15
I01
aI01
aI01
aI01
aI01
aI01
asg7
I00
sg8
S'/HexaTrack_02'
p16
sg10
(lp17
I00
aI00
aI00
aI00
asg12
I5
sa(dp18
g3
(I65
I50
tp19
sg5
(lp20
I01
aI01
aI01
aI01
aI01
aI01
asg7
I00
sg8
S'/HexaTrack_03'
p21
sg10
(lp22
I00
aI00
aI00
aI00
asg12
I5
sa(dp23
g3
(I65
I50
tp24
sg5
(lp25
I01
aI01
aI01
aI01
aI01
aI01
asg7
I00
sg8
S'/HexaTrack_04'
p26
sg10
(lp27
I00
aI00
aI00
aI00
asg12
I5
sa(dp28
g3
(I65
I50
tp29
sg5
(lp30
I01
aI01
aI01
aI01
aI01
aI01
asg7
I00
sg8
S'/HexaTrack_05'
p31
sg10
(lp32
I00
aI00
aI00
aI00
asg12
I5
sa(dp33
g3
(I65
I50
tp34
sg5
(lp35
I01
aI01
aI01
aI01
aI01
aI01
asg7
I00
sg8
S'/HexaTrack_06'
p36
sg10
(lp37
I00
aI00
aI00
aI00
asg12
I5
sa(dp38
g3
(I65
I50
tp39
sg5
(lp40
I01
aI01
aI01
aI01
aI01
aI01
asg7
I00
sg8
S'/HexaTrack_07'
p41
sg10
(lp42
I00
aI00
aI00
aI00
asg12
I5
sa(dp43
g3
(I65
I50
tp44
sg5
(lp45
I01
aI01
aI01
aI01
aI01
aI01
asg7
I00
sg8
S'/HexaTrack_08'
p46
sg10
(lp47
I00
aI00
aI00
aI00
asg12
I5
saa(lp48
(dp49
g3
(I65
I50
tp50
sg5
(lp51
I01
aI01
aI01
aI01
aI01
aI01
asg7
I00
sg8
g9
sg10
(lp52
I00
aI00
aI00
aI00
asg12
I5
sa(dp53
g3
(I65
I50
tp54
sg5
(lp55
I01
aI01
aI01
aI01
aI01
aI01
asg7
I00
sg8
g16
sg10
(lp56
I00
aI00
aI00
aI00
asg12
I5
sa(dp57
g3
(I65
I50
tp58
sg5
(lp59
I01
aI01
aI01
aI01
aI01
aI01
asg7
I00
sg8
g21
sg10
(lp60
I00
aI00
aI00
aI00
asg12
I5
sa(dp61
g3
(I65
I50
tp62
sg5
(lp63
I01
aI01
aI01
aI01
aI01
aI01
asg7
I00
sg8
g26
sg10
(lp64
I00
aI00
aI00
aI00
asg12
I5
sa(dp65
g3
(I65
I50
tp66
sg5
(lp67
I01
aI01
aI01
aI01
aI01
aI01
asg7
I00
sg8
g31
sg10
(lp68
I00
aI00
aI00
aI00
asg12
I5
sa(dp69
g3
(I65
I50
tp70
sg5
(lp71
I01
aI01
aI01
aI01
aI01
aI01
asg7
I00
sg8
g36
sg10
(lp72
I00
aI00
aI00
aI00
asg12
I5
sa(dp73
g3
(I65
I50
tp74
sg5
(lp75
I01
aI01
aI01
aI01
aI01
aI01
asg7
I00
sg8
g41
sg10
(lp76
I00
aI00
aI00
aI00
asg12
I5
sa(dp77
g3
(I65
I50
tp78
sg5
(lp79
I01
aI01
aI01
aI01
aI01
aI01
asg7
I00
sg8
g46
sg10
(lp80
I00
aI00
aI00
aI00
asg12
I5
saa.