(lp0
(lp1
(dp2
S'head_position'
p3
(I66
I83
tp4
sS'speakers'
p5
(lp6
I00
aI00
aI01
aI01
aI01
aI01
asS'mute'
p7
I01
sS'base_url'
p8
S'/track/0/'
p9
sS'inputs'
p10
(lp11
I01
aI00
aI00
aI00
asS'master'
p12
I95
sa(dp13
g3
(I65
I51
tp14
sg5
(lp15
I00
aI00
aI01
aI01
aI00
aI00
asg7
I01
sg8
S'/track/1/'
p16
sg10
(lp17
I00
aI01
aI00
aI00
asg12
I43
sa(dp18
g3
(I39
I23
tp19
sg5
(lp20
I01
aI01
aI01
aI01
aI01
aI01
asg7
I01
sg8
S'/track/2/'
p21
sg10
(lp22
I00
aI00
aI01
aI00
asg12
I45
sa(dp23
g3
(I92
I21
tp24
sg5
(lp25
I01
aI01
aI01
aI01
aI01
aI01
asg7
I01
sg8
S'/track/3/'
p26
sg10
(lp27
I00
aI00
aI00
aI01
asg12
I51
sa(dp28
g3
(I65
I50
tp29
sg5
(lp30
I01
aI01
aI01
aI01
aI01
aI01
asg7
I00
sg8
S'/track/4/'
p31
sg10
(lp32
I00
aI00
aI00
aI00
asg12
I5
sa(dp33
g3
(I65
I50
tp34
sg5
(lp35
I01
aI01
aI01
aI01
aI01
aI01
asg7
I00
sg8
S'/track/5/'
p36
sg10
(lp37
I00
aI00
aI00
aI00
asg12
I5
saa(lp38
(dp39
g3
(I65
I50
tp40
sg5
(lp41
I01
aI01
aI01
aI01
aI01
aI01
asg7
I00
sg8
g9
sg10
(lp42
I00
aI00
aI00
aI00
asg12
I5
sa(dp43
g3
(I63
I63
tp44
sg5
(lp45
I01
aI01
aI01
aI01
aI01
aI01
asg7
I01
sg8
g16
sg10
(lp46
I00
aI01
aI00
aI00
asg12
I61
sa(dp47
g3
(I65
I50
tp48
sg5
(lp49
I01
aI01
aI01
aI01
aI01
aI01
asg7
I00
sg8
g21
sg10
(lp50
I00
aI00
aI00
aI00
asg12
I5
sa(dp51
g3
(I65
I50
tp52
sg5
(lp53
I01
aI01
aI01
aI01
aI01
aI01
asg7
I00
sg8
g26
sg10
(lp54
I00
aI00
aI00
aI00
asg12
I5
sa(dp55
g3
(I65
I50
tp56
sg5
(lp57
I01
aI01
aI01
aI01
aI01
aI01
asg7
I00
sg8
g31
sg10
(lp58
I00
aI00
aI00
aI00
asg12
I5
sa(dp59
g3
(I65
I50
tp60
sg5
(lp61
I01
aI01
aI01
aI01
aI01
aI01
asg7
I00
sg8
g36
sg10
(lp62
I00
aI00
aI00
aI00
asg12
I5
saa(lp63
(dp64
g3
(I65
I50
tp65
sg5
(lp66
I01
aI01
aI01
aI01
aI01
aI01
asg7
I00
sg8
g9
sg10
(lp67
I00
aI00
aI00
aI00
asg12
I5
sa(dp68
g3
(I65
I50
tp69
sg5
(lp70
I01
aI01
aI01
aI01
aI01
aI01
asg7
I00
sg8
g16
sg10
(lp71
I00
aI00
aI00
aI00
asg12
I5
sa(dp72
g3
(I65
I50
tp73
sg5
(lp74
I01
aI01
aI01
aI01
aI01
aI01
asg7
I00
sg8
g21
sg10
(lp75
I00
aI00
aI00
aI00
asg12
I5
sa(dp76
g3
(I65
I50
tp77
sg5
(lp78
I01
aI01
aI01
aI01
aI01
aI01
asg7
I00
sg8
g26
sg10
(lp79
I00
aI00
aI00
aI00
asg12
I5
sa(dp80
g3
(I65
I50
tp81
sg5
(lp82
I01
aI01
aI01
aI01
aI01
aI01
asg7
I00
sg8
g31
sg10
(lp83
I00
aI00
aI00
aI00
asg12
I5
sa(dp84
g3
(I65
I50
tp85
sg5
(lp86
I01
aI01
aI01
aI01
aI01
aI01
asg7
I00
sg8
g36
sg10
(lp87
I00
aI00
aI00
aI00
asg12
I5
saa(lp88
(dp89
g3
(I65
I50
tp90
sg5
(lp91
I01
aI01
aI01
aI01
aI01
aI01
asg7
I00
sg8
g9
sg10
(lp92
I00
aI00
aI00
aI00
asg12
I5
sa(dp93
g3
(I65
I50
tp94
sg5
(lp95
I01
aI01
aI01
aI01
aI01
aI01
asg7
I00
sg8
g16
sg10
(lp96
I00
aI00
aI00
aI00
asg12
I5
sa(dp97
g3
(I65
I50
tp98
sg5
(lp99
I01
aI01
aI01
aI01
aI01
aI01
asg7
I00
sg8
g21
sg10
(lp100
I00
aI00
aI00
aI00
asg12
I5
sa(dp101
g3
(I65
I50
tp102
sg5
(lp103
I01
aI01
aI01
aI01
aI01
aI01
asg7
I00
sg8
g26
sg10
(lp104
I00
aI00
aI00
aI00
asg12
I5
sa(dp105
g3
(I65
I50
tp106
sg5
(lp107
I01
aI01
aI01
aI01
aI01
aI01
asg7
I00
sg8
g31
sg10
(lp108
I00
aI00
aI00
aI00
asg12
I5
sa(dp109
g3
(I65
I50
tp110
sg5
(lp111
I01
aI01
aI01
aI01
aI01
aI01
asg7
I00
sg8
g36
sg10
(lp112
I00
aI00
aI00
aI00
asg12
I5
saa(lp113
(dp114
g3
(I65
I50
tp115
sg5
(lp116
I01
aI01
aI01
aI01
aI01
aI01
asg7
I00
sg8
g9
sg10
(lp117
I00
aI00
aI00
aI00
asg12
I5
sa(dp118
g3
(I65
I50
tp119
sg5
(lp120
I01
aI01
aI01
aI01
aI01
aI01
asg7
I00
sg8
g16
sg10
(lp121
I00
aI00
aI00
aI00
asg12
I5
sa(dp122
g3
(I65
I50
tp123
sg5
(lp124
I01
aI01
aI01
aI01
aI01
aI01
asg7
I00
sg8
g21
sg10
(lp125
I00
aI00
aI00
aI00
asg12
I5
sa(dp126
g3
(I65
I50
tp127
sg5
(lp128
I01
aI01
aI01
aI01
aI01
aI01
asg7
I00
sg8
g26
sg10
(lp129
I00
aI00
aI00
aI00
asg12
I5
sa(dp130
g3
(I65
I50
tp131
sg5
(lp132
I01
aI01
aI01
aI01
aI01
aI01
asg7
I00
sg8
g31
sg10
(lp133
I00
aI00
aI00
aI00
asg12
I5
sa(dp134
g3
(I65
I50
tp135
sg5
(lp136
I01
aI01
aI01
aI01
aI01
aI01
asg7
I00
sg8
g36
sg10
(lp137
I00
aI00
aI00
aI00
asg12
I5
saa(lp138
(dp139
g3
(I65
I50
tp140
sg5
(lp141
I01
aI01
aI01
aI01
aI01
aI01
asg7
I00
sg8
g9
sg10
(lp142
I00
aI00
aI00
aI00
asg12
I5
sa(dp143
g3
(I65
I50
tp144
sg5
(lp145
I01
aI01
aI01
aI01
aI01
aI01
asg7
I00
sg8
g16
sg10
(lp146
I00
aI00
aI00
aI00
asg12
I5
sa(dp147
g3
(I65
I50
tp148
sg5
(lp149
I01
aI01
aI01
aI01
aI01
aI01
asg7
I00
sg8
g21
sg10
(lp150
I00
aI00
aI00
aI00
asg12
I5
sa(dp151
g3
(I65
I50
tp152
sg5
(lp153
I01
aI01
aI01
aI01
aI01
aI01
asg7
I00
sg8
g26
sg10
(lp154
I00
aI00
aI00
aI00
asg12
I5
sa(dp155
g3
(I65
I50
tp156
sg5
(lp157
I01
aI01
aI01
aI01
aI01
aI01
asg7
I00
sg8
g31
sg10
(lp158
I00
aI00
aI00
aI00
asg12
I5
sa(dp159
g3
(I65
I50
tp160
sg5
(lp161
I01
aI01
aI01
aI01
aI01
aI01
asg7
I00
sg8
g36
sg10
(lp162
I00
aI00
aI00
aI00
asg12
I5
saa(lp163
(dp164
g3
(I65
I50
tp165
sg5
(lp166
I01
aI01
aI01
aI01
aI01
aI01
asg7
I00
sg8
g9
sg10
(lp167
I00
aI00
aI00
aI00
asg12
I5
sa(dp168
g3
(I65
I50
tp169
sg5
(lp170
I01
aI01
aI01
aI01
aI01
aI01
asg7
I00
sg8
g16
sg10
(lp171
I00
aI00
aI00
aI00
asg12
I5
sa(dp172
g3
(I65
I50
tp173
sg5
(lp174
I01
aI01
aI01
aI01
aI01
aI01
asg7
I00
sg8
g21
sg10
(lp175
I00
aI00
aI00
aI00
asg12
I5
sa(dp176
g3
(I65
I50
tp177
sg5
(lp178
I01
aI01
aI01
aI01
aI01
aI01
asg7
I00
sg8
g26
sg10
(lp179
I00
aI00
aI00
aI00
asg12
I5
sa(dp180
g3
(I65
I50
tp181
sg5
(lp182
I01
aI01
aI01
aI01
aI01
aI01
asg7
I00
sg8
g31
sg10
(lp183
I00
aI00
aI00
aI00
asg12
I5
sa(dp184
g3
(I65
I50
tp185
sg5
(lp186
I01
aI01
aI01
aI01
aI01
aI01
asg7
I00
sg8
g36
sg10
(lp187
I00
aI00
aI00
aI00
asg12
I5
saa(lp188
(dp189
g3
(I65
I50
tp190
sg5
(lp191
I01
aI01
aI01
aI01
aI01
aI01
asg7
I00
sg8
g9
sg10
(lp192
I00
aI00
aI00
aI00
asg12
I5
sa(dp193
g3
(I65
I50
tp194
sg5
(lp195
I01
aI01
aI01
aI01
aI01
aI01
asg7
I00
sg8
g16
sg10
(lp196
I00
aI00
aI00
aI00
asg12
I5
sa(dp197
g3
(I65
I50
tp198
sg5
(lp199
I01
aI01
aI01
aI01
aI01
aI01
asg7
I00
sg8
g21
sg10
(lp200
I00
aI00
aI00
aI00
asg12
I5
sa(dp201
g3
(I65
I50
tp202
sg5
(lp203
I01
aI01
aI01
aI01
aI01
aI01
asg7
I00
sg8
g26
sg10
(lp204
I00
aI00
aI00
aI00
asg12
I5
sa(dp205
g3
(I65
I50
tp206
sg5
(lp207
I01
aI01
aI01
aI01
aI01
aI01
asg7
I00
sg8
g31
sg10
(lp208
I00
aI00
aI00
aI00
asg12
I5
sa(dp209
g3
(I65
I50
tp210
sg5
(lp211
I01
aI01
aI01
aI01
aI01
aI01
asg7
I00
sg8
g36
sg10
(lp212
I00
aI00
aI00
aI00
asg12
I5
saa(lp213
(dp214
g3
(I65
I50
tp215
sg5
(lp216
I01
aI01
aI01
aI01
aI01
aI01
asg7
I00
sg8
g9
sg10
(lp217
I00
aI00
aI00
aI00
asg12
I5
sa(dp218
g3
(I65
I50
tp219
sg5
(lp220
I01
aI01
aI01
aI01
aI01
aI01
asg7
I00
sg8
g16
sg10
(lp221
I00
aI00
aI00
aI00
asg12
I5
sa(dp222
g3
(I65
I50
tp223
sg5
(lp224
I01
aI01
aI01
aI01
aI01
aI01
asg7
I00
sg8
g21
sg10
(lp225
I00
aI00
aI00
aI00
asg12
I5
sa(dp226
g3
(I65
I50
tp227
sg5
(lp228
I01
aI01
aI01
aI01
aI01
aI01
asg7
I00
sg8
g26
sg10
(lp229
I00
aI00
aI00
aI00
asg12
I5
sa(dp230
g3
(I65
I50
tp231
sg5
(lp232
I01
aI01
aI01
aI01
aI01
aI01
asg7
I00
sg8
g31
sg10
(lp233
I00
aI00
aI00
aI00
asg12
I5
sa(dp234
g3
(I65
I50
tp235
sg5
(lp236
I01
aI01
aI01
aI01
aI01
aI01
asg7
I00
sg8
g36
sg10
(lp237
I00
aI00
aI00
aI00
asg12
I5
saa(lp238
(dp239
g3
(I65
I50
tp240
sg5
(lp241
I01
aI01
aI01
aI01
aI01
aI01
asg7
I00
sg8
g9
sg10
(lp242
I00
aI00
aI00
aI00
asg12
I5
sa(dp243
g3
(I65
I50
tp244
sg5
(lp245
I01
aI01
aI01
aI01
aI01
aI01
asg7
I00
sg8
g16
sg10
(lp246
I00
aI00
aI00
aI00
asg12
I5
sa(dp247
g3
(I65
I50
tp248
sg5
(lp249
I01
aI01
aI01
aI01
aI01
aI01
asg7
I00
sg8
g21
sg10
(lp250
I00
aI00
aI00
aI00
asg12
I5
sa(dp251
g3
(I65
I50
tp252
sg5
(lp253
I01
aI01
aI01
aI01
aI01
aI01
asg7
I00
sg8
g26
sg10
(lp254
I00
aI00
aI00
aI00
asg12
I5
sa(dp255
g3
(I65
I50
tp256
sg5
(lp257
I01
aI01
aI01
aI01
aI01
aI01
asg7
I00
sg8
g31
sg10
(lp258
I00
aI00
aI00
aI00
asg12
I5
sa(dp259
g3
(I65
I50
tp260
sg5
(lp261
I01
aI01
aI01
aI01
aI01
aI01
asg7
I00
sg8
g36
sg10
(lp262
I00
aI00
aI00
aI00
asg12
I5
saa(lp263
(dp264
g3
(I65
I50
tp265
sg5
(lp266
I01
aI01
aI01
aI01
aI01
aI01
asg7
I00
sg8
g9
sg10
(lp267
I00
aI00
aI00
aI00
asg12
I5
sa(dp268
g3
(I65
I50
tp269
sg5
(lp270
I01
aI01
aI01
aI01
aI01
aI01
asg7
I00
sg8
g16
sg10
(lp271
I00
aI00
aI00
aI00
asg12
I5
sa(dp272
g3
(I65
I50
tp273
sg5
(lp274
I01
aI01
aI01
aI01
aI01
aI01
asg7
I00
sg8
g21
sg10
(lp275
I00
aI00
aI00
aI00
asg12
I5
sa(dp276
g3
(I65
I50
tp277
sg5
(lp278
I01
aI01
aI01
aI01
aI01
aI01
asg7
I00
sg8
g26
sg10
(lp279
I00
aI00
aI00
aI00
asg12
I5
sa(dp280
g3
(I65
I50
tp281
sg5
(lp282
I01
aI01
aI01
aI01
aI01
aI01
asg7
I00
sg8
g31
sg10
(lp283
I00
aI00
aI00
aI00
asg12
I5
sa(dp284
g3
(I65
I50
tp285
sg5
(lp286
I01
aI01
aI01
aI01
aI01
aI01
asg7
I00
sg8
g36
sg10
(lp287
I00
aI00
aI00
aI00
asg12
I5
saa.