(lp0
(lp1
(dp2
S'head_position'
p3
(I65
I50
tp4
sS'speakers'
p5
(lp6
I01
aI01
aI01
aI01
aI01
aI01
asS'inputs'
p7
(lp8
I00
aI00
aI00
aI00
asS'mute'
p9
I00
sS'base_url'
p10
S'/track/0/'
p11
sS'master'
p12
I95
sa(dp13
g3
(I65
I50
tp14
sg5
(lp15
I01
aI01
aI01
aI01
aI01
aI01
asg7
(lp16
I00
aI01
aI01
aI00
asg9
I00
sg10
S'/track/1/'
p17
sg12
I5
sa(dp18
g3
(I65
I50
tp19
sg5
(lp20
I01
aI01
aI01
aI01
aI01
aI01
asg7
(lp21
I00
aI00
aI00
aI00
asg9
I00
sg10
S'/track/2/'
p22
sg12
I5
sa(dp23
g3
(I65
I50
tp24
sg5
(lp25
I01
aI01
aI01
aI01
aI01
aI01
asg7
(lp26
I00
aI00
aI00
aI00
asg9
I00
sg10
S'/track/3/'
p27
sg12
I5
sa(dp28
g3
(I65
I50
tp29
sg5
(lp30
I01
aI01
aI01
aI01
aI01
aI01
asg7
(lp31
I00
aI00
aI00
aI00
asg9
I00
sg10
S'/track/4/'
p32
sg12
I5
sa(dp33
g3
(I65
I50
tp34
sg5
(lp35
I01
aI01
aI01
aI01
aI01
aI01
asg7
(lp36
I00
aI00
aI00
aI00
asg9
I00
sg10
S'/track/5/'
p37
sg12
I5
saa(lp38
(dp39
S'head_position'
p40
(I65
I50
tp41
sS'speakers'
p42
(lp43
I01
aI01
aI01
aI01
aI01
aI01
asS'mute'
p44
I01
sS'base_url'
p45
g11
sS'inputs'
p46
(lp47
I00
aI00
aI00
aI00
asS'master'
p48
I5
sa(dp49
g40
(I65
I50
tp50
sg42
(lp51
I01
aI01
aI01
aI01
aI01
aI01
asg44
I01
sg45
g17
sg46
(lp52
I01
aI00
aI00
aI01
asg48
I51
sa(dp53
g40
(I65
I50
tp54
sg42
(lp55
I01
aI01
aI01
aI01
aI01
aI01
asg44
I00
sg45
g22
sg46
(lp56
I00
aI00
aI00
aI00
asg48
I5
sa(dp57
g40
(I65
I50
tp58
sg42
(lp59
I01
aI01
aI01
aI01
aI01
aI01
asg44
I00
sg45
g27
sg46
(lp60
I00
aI00
aI00
aI00
asg48
I5
sa(dp61
g40
(I65
I50
tp62
sg42
(lp63
I01
aI01
aI01
aI01
aI01
aI01
asg44
I00
sg45
g32
sg46
(lp64
I00
aI00
aI00
aI00
asg48
I5
sa(dp65
g40
(I65
I50
tp66
sg42
(lp67
I01
aI01
aI01
aI01
aI01
aI01
asg44
I00
sg45
g37
sg46
(lp68
I00
aI00
aI00
aI00
asg48
I5
saa.