(lp0
(lp1
(dp2
S'head_position'
p3
(I84
I40
tp4
sS'speakers'
p5
(lp6
I01
aI01
aI01
aI01
aI01
aI01
asS'inputs'
p7
(lp8
I00
aI00
aI00
aI00
asS'mute'
p9
I00
sS'base_url'
p10
S'/track/0/'
p11
sS'master'
p12
I5
sa(dp13
g3
(I26
I24
tp14
sg5
(lp15
I01
aI01
aI01
aI01
aI01
aI01
asg7
(lp16
I00
aI00
aI00
aI00
asg9
I01
sg10
S'/track/1/'
p17
sg12
I5
sa(dp18
g3
(I70
I7
tp19
sg5
(lp20
I01
aI01
aI01
aI01
aI01
aI01
asg7
(lp21
I00
aI00
aI00
aI00
asg9
I01
sg10
S'/track/2/'
p22
sg12
I5
sa(dp23
g3
(I60
I86
tp24
sg5
(lp25
I01
aI01
aI01
aI01
aI01
aI01
asg7
(lp26
I00
aI00
aI00
aI00
asg9
I01
sg10
S'/track/3/'
p27
sg12
I5
sa(dp28
g3
(I65
I50
tp29
sg5
(lp30
I01
aI01
aI01
aI01
aI01
aI01
asg7
(lp31
I00
aI00
aI00
aI00
asg9
I00
sg10
S'/track/4/'
p32
sg12
I5
sa(dp33
g3
(I65
I50
tp34
sg5
(lp35
I01
aI01
aI01
aI01
aI01
aI01
asg7
(lp36
I00
aI00
aI00
aI00
asg9
I00
sg10
S'/track/5/'
p37
sg12
I5
saa(lp38
(dp39
S'head_position'
p40
(I60
I73
tp41
sS'speakers'
p42
(lp43
I01
aI01
aI01
aI01
aI01
aI00
asS'inputs'
p44
(lp45
I00
aI00
aI01
aI01
asS'mute'
p46
I00
sS'base_url'
p47
g11
sS'master'
p48
I5
sa(dp49
g40
(I59
I8
tp50
sg42
(lp51
I01
aI01
aI01
aI01
aI00
aI01
asg44
(lp52
I01
aI01
aI01
aI00
asg46
I00
sg47
g17
sg48
I66
sa(dp53
g40
(I65
I50
tp54
sg42
(lp55
I01
aI01
aI01
aI01
aI01
aI01
asg44
(lp56
I00
aI00
aI00
aI00
asg46
I00
sg47
g22
sg48
I5
sa(dp57
g40
(I65
I50
tp58
sg42
(lp59
I01
aI01
aI01
aI01
aI01
aI01
asg44
(lp60
I00
aI00
aI00
aI00
asg46
I00
sg47
g27
sg48
I5
sa(dp61
g40
(I65
I50
tp62
sg42
(lp63
I01
aI01
aI01
aI01
aI01
aI01
asg44
(lp64
I00
aI00
aI00
aI00
asg46
I00
sg47
g32
sg48
I5
sa(dp65
g40
(I65
I50
tp66
sg42
(lp67
I01
aI01
aI01
aI01
aI01
aI01
asg44
(lp68
I00
aI00
aI00
aI00
asg46
I00
sg47
g37
sg48
I5
saa(lp69
(dp70
S'head_position'
p71
(I65
I50
tp72
sS'speakers'
p73
(lp74
I01
aI01
aI01
aI01
aI01
aI01
asS'mute'
p75
I00
sS'base_url'
p76
g11
sS'inputs'
p77
(lp78
I00
aI00
aI00
aI00
asS'master'
p79
I5
sa(dp80
g71
(I65
I50
tp81
sg73
(lp82
I01
aI01
aI01
aI01
aI01
aI01
asg75
I00
sg76
g17
sg77
(lp83
I00
aI00
aI00
aI00
asg79
I5
sa(dp84
g71
(I65
I50
tp85
sg73
(lp86
I01
aI01
aI01
aI01
aI01
aI01
asg75
I00
sg76
g22
sg77
(lp87
I00
aI00
aI00
aI00
asg79
I5
sa(dp88
g71
(I65
I50
tp89
sg73
(lp90
I01
aI01
aI01
aI01
aI01
aI01
asg75
I00
sg76
g27
sg77
(lp91
I00
aI00
aI00
aI00
asg79
I5
sa(dp92
g71
(I65
I50
tp93
sg73
(lp94
I01
aI01
aI01
aI01
aI01
aI01
asg75
I00
sg76
g32
sg77
(lp95
I00
aI00
aI00
aI00
asg79
I5
sa(dp96
g71
(I65
I50
tp97
sg73
(lp98
I01
aI01
aI01
aI01
aI01
aI01
asg75
I00
sg76
g37
sg77
(lp99
I00
aI00
aI00
aI00
asg79
I5
saa.