(lp0
(lp1
(dp2
S'head_position'
p3
(I67
I3
tp4
sS'speakers'
p5
(lp6
I01
aI01
aI01
aI01
aI01
aI01
asS'mute'
p7
I01
sS'base_url'
p8
S'/track/0/'
p9
sS'inputs'
p10
(lp11
I01
aI01
aI01
aI01
asS'master'
p12
I95
sa(dp13
g3
(I65
I50
tp14
sg5
(lp15
I01
aI01
aI01
aI01
aI01
aI01
asg7
I00
sg8
S'/track/1/'
p16
sg10
(lp17
I00
aI00
aI00
aI00
asg12
I5
sa(dp18
g3
(I65
I50
tp19
sg5
(lp20
I01
aI01
aI01
aI01
aI01
aI01
asg7
I00
sg8
S'/track/2/'
p21
sg10
(lp22
I00
aI00
aI00
aI00
asg12
I5
sa(dp23
g3
(I65
I50
tp24
sg5
(lp25
I01
aI01
aI01
aI01
aI01
aI01
asg7
I00
sg8
S'/track/3/'
p26
sg10
(lp27
I00
aI00
aI00
aI00
asg12
I5
sa(dp28
g3
(I65
I50
tp29
sg5
(lp30
I01
aI01
aI01
aI01
aI01
aI01
asg7
I00
sg8
S'/track/4/'
p31
sg10
(lp32
I00
aI00
aI00
aI00
asg12
I5
sa(dp33
g3
(I65
I50
tp34
sg5
(lp35
I01
aI01
aI01
aI01
aI01
aI01
asg7
I00
sg8
S'/track/5/'
p36
sg10
(lp37
I00
aI00
aI00
aI00
asg12
I5
saa.