(lp0
(dp1
S'head_position'
p2
(I60
I57
tp3
sS'speakers'
p4
(lp5
I01
aI01
aI01
aI01
aI01
aI01
asS'mute'
p6
I01
sS'base_url'
p7
S'/track/0/'
p8
sS'inputs'
p9
(lp10
I00
aI00
aI00
aI00
asS'master'
p11
I43
sa(dp12
g2
(I94
I5
tp13
sg4
(lp14
I01
aI01
aI01
aI01
aI01
aI01
asg6
I01
sg7
S'/track/1/'
p15
sg9
(lp16
I00
aI00
aI00
aI00
asg11
I64
sa(dp17
g2
(I65
I50
tp18
sg4
(lp19
I00
aI01
aI01
aI00
aI01
aI01
asg6
I00
sg7
S'/track/2/'
p20
sg9
(lp21
I00
aI00
aI00
aI00
asg11
I69
sa(dp22
g2
(I33
I15
tp23
sg4
(lp24
I01
aI01
aI00
aI01
aI01
aI01
asg6
I01
sg7
S'/track/3/'
p25
sg9
(lp26
I00
aI00
aI00
aI00
asg11
I95
sa(dp27
g2
(I44
I67
tp28
sg4
(lp29
I01
aI01
aI01
aI01
aI01
aI01
asg6
I00
sg7
S'/track/4/'
p30
sg9
(lp31
I00
aI00
aI00
aI00
asg11
I95
sa(dp32
g2
(I63
I71
tp33
sg4
(lp34
I01
aI01
aI01
aI01
aI01
aI01
asg6
I00
sg7
S'/track/5/'
p35
sg9
(lp36
I00
aI00
aI00
aI00
asg11
I95
sa.