(lp0
(lp1
(dp2
S'head_position'
p3
(I74
I70
tp4
sS'speakers'
p5
(lp6
I01
aI01
aI00
aI00
aI01
aI01
asS'mute'
p7
I01
sS'base_url'
p8
S'/track/0/'
p9
sS'inputs'
p10
(lp11
I00
aI00
aI01
aI00
asS'master'
p12
I23
sa(dp13
g3
(I65
I50
tp14
sg5
(lp15
I01
aI01
aI01
aI01
aI01
aI01
asg7
I00
sg8
S'/track/1/'
p16
sg10
(lp17
I00
aI00
aI00
aI00
asg12
I5
sa(dp18
g3
(I65
I50
tp19
sg5
(lp20
I01
aI01
aI01
aI01
aI01
aI01
asg7
I00
sg8
S'/track/2/'
p21
sg10
(lp22
I00
aI00
aI00
aI00
asg12
I5
sa(dp23
g3
(I65
I50
tp24
sg5
(lp25
I01
aI01
aI01
aI01
aI01
aI01
asg7
I00
sg8
S'/track/3/'
p26
sg10
(lp27
I00
aI00
aI00
aI00
asg12
I5
sa(dp28
g3
(I65
I50
tp29
sg5
(lp30
I01
aI01
aI01
aI01
aI01
aI01
asg7
I00
sg8
S'/track/4/'
p31
sg10
(lp32
I00
aI00
aI00
aI00
asg12
I5
sa(dp33
g3
(I65
I50
tp34
sg5
(lp35
I01
aI01
aI01
aI01
aI01
aI01
asg7
I00
sg8
S'/track/5/'
p36
sg10
(lp37
I00
aI00
aI00
aI00
asg12
I5
saa(lp38
(dp39
S'head_position'
p40
(I103
I49
tp41
sS'speakers'
p42
(lp43
I01
aI01
aI00
aI01
aI00
aI00
asS'inputs'
p44
(lp45
I00
aI00
aI01
aI00
asS'mute'
p46
I01
sS'base_url'
p47
g9
sS'master'
p48
I13
sa(dp49
g40
(I65
I50
tp50
sg42
(lp51
I01
aI01
aI01
aI01
aI01
aI01
asg44
(lp52
I00
aI00
aI00
aI00
asg46
I00
sg47
g16
sg48
I5
sa(dp53
g40
(I65
I50
tp54
sg42
(lp55
I01
aI01
aI01
aI01
aI01
aI01
asg44
(lp56
I00
aI00
aI00
aI00
asg46
I00
sg47
g21
sg48
I5
sa(dp57
g40
(I65
I50
tp58
sg42
(lp59
I01
aI01
aI01
aI01
aI01
aI01
asg44
(lp60
I00
aI00
aI00
aI00
asg46
I00
sg47
g26
sg48
I5
sa(dp61
g40
(I65
I50
tp62
sg42
(lp63
I01
aI01
aI01
aI01
aI01
aI01
asg44
(lp64
I00
aI00
aI00
aI00
asg46
I00
sg47
g31
sg48
I5
sa(dp65
g40
(I65
I50
tp66
sg42
(lp67
I01
aI01
aI01
aI01
aI01
aI01
asg44
(lp68
I00
aI00
aI00
aI00
asg46
I00
sg47
g36
sg48
I5
saa(lp69
(dp70
g40
(I78
I64
tp71
sg42
(lp72
I01
aI01
aI00
aI00
aI00
aI01
asg44
(lp73
I00
aI00
aI00
aI01
asg46
I01
sg47
g9
sg48
I51
sa(dp74
g40
(I65
I50
tp75
sg42
(lp76
I01
aI01
aI01
aI01
aI01
aI01
asg44
(lp77
I00
aI00
aI00
aI00
asg46
I00
sg47
g16
sg48
I5
sa(dp78
g40
(I65
I50
tp79
sg42
(lp80
I01
aI01
aI01
aI01
aI01
aI01
asg44
(lp81
I00
aI00
aI00
aI00
asg46
I00
sg47
g21
sg48
I5
sa(dp82
g40
(I65
I50
tp83
sg42
(lp84
I01
aI01
aI01
aI01
aI01
aI01
asg44
(lp85
I00
aI00
aI00
aI00
asg46
I00
sg47
g26
sg48
I5
sa(dp86
g40
(I65
I50
tp87
sg42
(lp88
I01
aI01
aI01
aI01
aI01
aI01
asg44
(lp89
I00
aI00
aI00
aI00
asg46
I00
sg47
g31
sg48
I5
sa(dp90
g40
(I65
I50
tp91
sg42
(lp92
I01
aI01
aI01
aI01
aI01
aI01
asg44
(lp93
I00
aI00
aI00
aI00
asg46
I00
sg47
g36
sg48
I5
saa(lp94
(dp95
g40
(I66
I24
tp96
sg42
(lp97
I01
aI01
aI01
aI01
aI00
aI00
asg44
(lp98
I00
aI00
aI01
aI00
asg46
I01
sg47
g9
sg48
I8
sa(dp99
g40
(I71
I71
tp100
sg42
(lp101
I01
aI01
aI00
aI00
aI01
aI01
asg44
(lp102
I00
aI00
aI00
aI01
asg46
I01
sg47
g16
sg48
I20
sa(dp103
g40
(I65
I50
tp104
sg42
(lp105
I01
aI01
aI01
aI01
aI01
aI01
asg44
(lp106
I00
aI00
aI00
aI00
asg46
I00
sg47
g21
sg48
I5
sa(dp107
g40
(I65
I50
tp108
sg42
(lp109
I01
aI01
aI01
aI01
aI01
aI01
asg44
(lp110
I00
aI00
aI00
aI00
asg46
I00
sg47
g26
sg48
I5
sa(dp111
g40
(I65
I50
tp112
sg42
(lp113
I01
aI01
aI01
aI01
aI01
aI01
asg44
(lp114
I00
aI00
aI00
aI00
asg46
I00
sg47
g31
sg48
I5
sa(dp115
g40
(I65
I50
tp116
sg42
(lp117
I01
aI01
aI01
aI01
aI01
aI01
asg44
(lp118
I00
aI00
aI00
aI00
asg46
I00
sg47
g36
sg48
I5
saa(lp119
(dp120
g40
(I56
I62
tp121
sg42
(lp122
I01
aI01
aI00
aI00
aI01
aI00
asg44
(lp123
I00
aI00
aI00
aI01
asg46
I01
sg47
g9
sg48
I34
sa(dp124
g40
(I65
I50
tp125
sg42
(lp126
I01
aI01
aI01
aI01
aI01
aI01
asg44
(lp127
I00
aI00
aI00
aI00
asg46
I00
sg47
g16
sg48
I5
sa(dp128
g40
(I65
I50
tp129
sg42
(lp130
I01
aI01
aI01
aI01
aI01
aI01
asg44
(lp131
I00
aI00
aI00
aI00
asg46
I00
sg47
g21
sg48
I5
sa(dp132
g40
(I65
I50
tp133
sg42
(lp134
I01
aI01
aI01
aI01
aI01
aI01
asg44
(lp135
I00
aI00
aI00
aI00
asg46
I00
sg47
g26
sg48
I5
sa(dp136
g40
(I65
I50
tp137
sg42
(lp138
I01
aI01
aI01
aI01
aI01
aI01
asg44
(lp139
I00
aI00
aI00
aI00
asg46
I00
sg47
g31
sg48
I5
sa(dp140
g40
(I65
I50
tp141
sg42
(lp142
I01
aI01
aI01
aI01
aI01
aI01
asg44
(lp143
I00
aI00
aI00
aI00
asg46
I00
sg47
g36
sg48
I5
saa(lp144
(dp145
g3
(I65
I25
tp146
sg5
(lp147
I00
aI01
aI01
aI00
aI00
aI00
asg7
I01
sg8
g9
sg10
(lp148
I00
aI00
aI01
aI00
asg12
I15
sa(dp149
g3
(I65
I50
tp150
sg5
(lp151
I01
aI01
aI01
aI01
aI01
aI01
asg7
I00
sg8
g16
sg10
(lp152
I00
aI00
aI00
aI00
asg12
I5
sa(dp153
g3
(I65
I50
tp154
sg5
(lp155
I01
aI01
aI01
aI01
aI01
aI01
asg7
I00
sg8
g21
sg10
(lp156
I00
aI00
aI00
aI00
asg12
I5
sa(dp157
g3
(I65
I50
tp158
sg5
(lp159
I01
aI01
aI01
aI01
aI01
aI01
asg7
I00
sg8
g26
sg10
(lp160
I00
aI00
aI00
aI00
asg12
I5
sa(dp161
g3
(I65
I50
tp162
sg5
(lp163
I01
aI01
aI01
aI01
aI01
aI01
asg7
I00
sg8
g31
sg10
(lp164
I00
aI00
aI00
aI00
asg12
I5
sa(dp165
g3
(I65
I50
tp166
sg5
(lp167
I01
aI01
aI01
aI01
aI01
aI01
asg7
I00
sg8
g36
sg10
(lp168
I00
aI00
aI00
aI00
asg12
I5
saa(lp169
(dp170
g40
(I57
I33
tp171
sg42
(lp172
I01
aI01
aI00
aI00
aI01
aI01
asg44
(lp173
I00
aI00
aI01
aI00
asg46
I01
sg47
g9
sg48
I14
sa(dp174
g40
(I65
I50
tp175
sg42
(lp176
I01
aI01
aI01
aI01
aI01
aI01
asg44
(lp177
I00
aI00
aI00
aI00
asg46
I00
sg47
g16
sg48
I5
sa(dp178
g40
(I65
I50
tp179
sg42
(lp180
I01
aI01
aI01
aI01
aI01
aI01
asg44
(lp181
I00
aI00
aI00
aI00
asg46
I00
sg47
g21
sg48
I5
sa(dp182
g40
(I65
I50
tp183
sg42
(lp184
I01
aI01
aI01
aI01
aI01
aI01
asg44
(lp185
I00
aI00
aI00
aI00
asg46
I00
sg47
g26
sg48
I5
sa(dp186
g40
(I65
I50
tp187
sg42
(lp188
I01
aI01
aI01
aI01
aI01
aI01
asg44
(lp189
I00
aI00
aI00
aI00
asg46
I00
sg47
g31
sg48
I5
sa(dp190
g40
(I65
I50
tp191
sg42
(lp192
I01
aI01
aI01
aI01
aI01
aI01
asg44
(lp193
I00
aI00
aI00
aI00
asg46
I00
sg47
g36
sg48
I5
saa(lp194
(dp195
g40
(I43
I24
tp196
sg42
(lp197
I01
aI01
aI00
aI00
aI01
aI01
asg44
(lp198
I00
aI00
aI01
aI00
asg46
I01
sg47
g9
sg48
I16
sa(dp199
g40
(I65
I50
tp200
sg42
(lp201
I01
aI01
aI01
aI01
aI01
aI01
asg44
(lp202
I00
aI00
aI00
aI00
asg46
I00
sg47
g16
sg48
I5
sa(dp203
g40
(I65
I50
tp204
sg42
(lp205
I01
aI01
aI01
aI01
aI01
aI01
asg44
(lp206
I00
aI00
aI00
aI00
asg46
I00
sg47
g21
sg48
I5
sa(dp207
g40
(I65
I50
tp208
sg42
(lp209
I01
aI01
aI01
aI01
aI01
aI01
asg44
(lp210
I00
aI00
aI00
aI00
asg46
I00
sg47
g26
sg48
I5
sa(dp211
g40
(I65
I50
tp212
sg42
(lp213
I01
aI01
aI01
aI01
aI01
aI01
asg44
(lp214
I00
aI00
aI00
aI00
asg46
I00
sg47
g31
sg48
I5
sa(dp215
g40
(I65
I50
tp216
sg42
(lp217
I01
aI01
aI01
aI01
aI01
aI01
asg44
(lp218
I00
aI00
aI00
aI00
asg46
I00
sg47
g36
sg48
I5
saa(lp219
(dp220
S'head_position'
p221
(I78
I63
tp222
sS'speakers'
p223
(lp224
I01
aI01
aI00
aI00
aI00
aI01
asS'inputs'
p225
(lp226
I00
aI00
aI00
aI01
asS'mute'
p227
I01
sS'base_url'
p228
g9
sS'master'
p229
I43
sa(dp230
g221
(I65
I50
tp231
sg223
(lp232
I01
aI01
aI01
aI01
aI01
aI01
asg225
(lp233
I00
aI00
aI00
aI00
asg227
I00
sg228
g16
sg229
I5
sa(dp234
g221
(I65
I50
tp235
sg223
(lp236
I01
aI01
aI01
aI01
aI01
aI01
asg225
(lp237
I00
aI00
aI00
aI00
asg227
I00
sg228
g21
sg229
I5
sa(dp238
g221
(I65
I50
tp239
sg223
(lp240
I01
aI01
aI01
aI01
aI01
aI01
asg225
(lp241
I00
aI00
aI00
aI00
asg227
I00
sg228
g26
sg229
I5
sa(dp242
g221
(I65
I50
tp243
sg223
(lp244
I01
aI01
aI01
aI01
aI01
aI01
asg225
(lp245
I00
aI00
aI00
aI00
asg227
I00
sg228
g31
sg229
I5
sa(dp246
g221
(I65
I50
tp247
sg223
(lp248
I01
aI01
aI01
aI01
aI01
aI01
asg225
(lp249
I00
aI00
aI00
aI00
asg227
I00
sg228
g36
sg229
I5
saa(lp250
(dp251
S'head_position'
p252
(I33
I43
tp253
sS'speakers'
p254
(lp255
I01
aI00
aI01
aI01
aI00
aI00
asS'mute'
p256
I01
sS'base_url'
p257
g9
sS'inputs'
p258
(lp259
I00
aI00
aI00
aI01
asS'master'
p260
I14
sa(dp261
g252
(I91
I95
tp262
sg254
(lp263
I00
aI00
aI00
aI00
aI00
aI01
asg256
I01
sg257
g16
sg258
(lp264
I00
aI00
aI00
aI01
asg260
I9
sa(dp265
g252
(I65
I50
tp266
sg254
(lp267
I01
aI01
aI01
aI01
aI01
aI01
asg256
I00
sg257
g21
sg258
(lp268
I00
aI00
aI00
aI00
asg260
I5
sa(dp269
g252
(I65
I50
tp270
sg254
(lp271
I01
aI01
aI01
aI01
aI01
aI01
asg256
I00
sg257
g26
sg258
(lp272
I00
aI00
aI00
aI00
asg260
I5
sa(dp273
g252
(I65
I50
tp274
sg254
(lp275
I01
aI01
aI01
aI01
aI01
aI01
asg256
I00
sg257
g31
sg258
(lp276
I00
aI00
aI00
aI00
asg260
I5
sa(dp277
g252
(I65
I50
tp278
sg254
(lp279
I01
aI01
aI01
aI01
aI01
aI01
asg256
I00
sg257
g36
sg258
(lp280
I00
aI00
aI00
aI00
asg260
I5
saa(lp281
(dp282
g40
(I71
I52
tp283
sg42
(lp284
I01
aI01
aI00
aI00
aI01
aI01
asg44
(lp285
I00
aI00
aI00
aI01
asg46
I01
sg47
g9
sg48
I38
sa(dp286
g40
(I65
I50
tp287
sg42
(lp288
I01
aI01
aI01
aI01
aI01
aI01
asg44
(lp289
I00
aI00
aI00
aI00
asg46
I00
sg47
g16
sg48
I5
sa(dp290
g40
(I65
I50
tp291
sg42
(lp292
I01
aI01
aI01
aI01
aI01
aI01
asg44
(lp293
I00
aI00
aI00
aI00
asg46
I00
sg47
g21
sg48
I5
sa(dp294
g40
(I65
I50
tp295
sg42
(lp296
I01
aI01
aI01
aI01
aI01
aI01
asg44
(lp297
I00
aI00
aI00
aI00
asg46
I00
sg47
g26
sg48
I5
sa(dp298
g40
(I65
I50
tp299
sg42
(lp300
I01
aI01
aI01
aI01
aI01
aI01
asg44
(lp301
I00
aI00
aI00
aI00
asg46
I00
sg47
g31
sg48
I5
sa(dp302
g40
(I65
I50
tp303
sg42
(lp304
I01
aI01
aI01
aI01
aI01
aI01
asg44
(lp305
I00
aI00
aI00
aI00
asg46
I00
sg47
g36
sg48
I5
saa(lp306
(dp307
S'head_position'
p308
(I64
I51
tp309
sS'speakers'
p310
(lp311
I01
aI01
aI00
aI00
aI01
aI01
asS'mute'
p312
I01
sS'base_url'
p313
g9
sS'inputs'
p314
(lp315
I00
aI00
aI01
aI00
asS'master'
p316
I11
sa(dp317
g308
(I65
I72
tp318
sg310
(lp319
I00
aI00
aI00
aI00
aI01
aI01
asg312
I01
sg313
g16
sg314
(lp320
I00
aI00
aI00
aI01
asg316
I10
sa(dp321
g308
(I65
I50
tp322
sg310
(lp323
I01
aI01
aI01
aI01
aI01
aI01
asg312
I00
sg313
g21
sg314
(lp324
I00
aI00
aI00
aI00
asg316
I5
sa(dp325
g308
(I65
I50
tp326
sg310
(lp327
I01
aI01
aI01
aI01
aI01
aI01
asg312
I00
sg313
g26
sg314
(lp328
I00
aI00
aI00
aI00
asg316
I5
sa(dp329
g308
(I65
I50
tp330
sg310
(lp331
I01
aI01
aI01
aI01
aI01
aI01
asg312
I00
sg313
g31
sg314
(lp332
I00
aI00
aI00
aI00
asg316
I5
sa(dp333
g308
(I65
I50
tp334
sg310
(lp335
I01
aI01
aI01
aI01
aI01
aI01
asg312
I00
sg313
g36
sg314
(lp336
I00
aI00
aI00
aI00
asg316
I5
saa(lp337
(dp338
g40
(I66
I32
tp339
sg42
(lp340
I01
aI01
aI01
aI01
aI00
aI00
asg44
(lp341
I00
aI00
aI01
aI00
asg46
I01
sg47
g9
sg48
I14
sa(dp342
g40
(I66
I88
tp343
sg42
(lp344
I00
aI00
aI01
aI01
aI01
aI01
asg44
(lp345
I00
aI00
aI00
aI01
asg46
I01
sg47
g16
sg48
I7
sa(dp346
g40
(I65
I50
tp347
sg42
(lp348
I01
aI01
aI01
aI01
aI01
aI01
asg44
(lp349
I00
aI00
aI00
aI00
asg46
I00
sg47
g21
sg48
I5
sa(dp350
g40
(I65
I50
tp351
sg42
(lp352
I01
aI01
aI01
aI01
aI01
aI01
asg44
(lp353
I00
aI00
aI00
aI00
asg46
I00
sg47
g26
sg48
I5
sa(dp354
g40
(I65
I50
tp355
sg42
(lp356
I01
aI01
aI01
aI01
aI01
aI01
asg44
(lp357
I00
aI00
aI00
aI00
asg46
I00
sg47
g31
sg48
I5
sa(dp358
g40
(I65
I50
tp359
sg42
(lp360
I01
aI01
aI01
aI01
aI01
aI01
asg44
(lp361
I00
aI00
aI00
aI00
asg46
I00
sg47
g36
sg48
I5
saa(lp362
(dp363
g308
(I65
I39
tp364
sg310
(lp365
I01
aI01
aI01
aI01
aI01
aI01
asg312
I01
sg313
g9
sg314
(lp366
I00
aI01
aI00
aI00
asg316
I95
sa(dp367
g308
(I65
I23
tp368
sg310
(lp369
I01
aI01
aI01
aI01
aI01
aI01
asg312
I01
sg313
g16
sg314
(lp370
I00
aI00
aI00
aI01
asg316
I59
sa(dp371
g308
(I65
I51
tp372
sg310
(lp373
I01
aI01
aI01
aI01
aI01
aI01
asg312
I01
sg313
g21
sg314
(lp374
I00
aI00
aI00
aI01
asg316
I66
sa(dp375
g308
(I66
I56
tp376
sg310
(lp377
I01
aI01
aI01
aI01
aI01
aI01
asg312
I01
sg313
g26
sg314
(lp378
I00
aI01
aI00
aI00
asg316
I70
sa(dp379
g308
(I65
I50
tp380
sg310
(lp381
I01
aI01
aI01
aI01
aI01
aI01
asg312
I00
sg313
g31
sg314
(lp382
I00
aI00
aI00
aI00
asg316
I5
sa(dp383
g308
(I65
I50
tp384
sg310
(lp385
I01
aI01
aI01
aI01
aI01
aI01
asg312
I00
sg313
g36
sg314
(lp386
I00
aI00
aI00
aI00
asg316
I5
saa(lp387
(dp388
g40
(I65
I50
tp389
sg42
(lp390
I00
aI00
aI01
aI01
aI00
aI00
asg44
(lp391
I00
aI01
aI00
aI00
asg46
I01
sg47
g9
sg48
I63
sa(dp392
g40
(I65
I50
tp393
sg42
(lp394
I01
aI01
aI01
aI01
aI01
aI01
asg44
(lp395
I00
aI00
aI00
aI00
asg46
I00
sg47
g16
sg48
I5
sa(dp396
g40
(I65
I50
tp397
sg42
(lp398
I01
aI01
aI01
aI01
aI01
aI01
asg44
(lp399
I00
aI00
aI00
aI00
asg46
I00
sg47
g21
sg48
I5
sa(dp400
g40
(I65
I50
tp401
sg42
(lp402
I01
aI01
aI01
aI01
aI01
aI01
asg44
(lp403
I00
aI00
aI00
aI00
asg46
I00
sg47
g26
sg48
I5
sa(dp404
g40
(I65
I50
tp405
sg42
(lp406
I01
aI01
aI01
aI01
aI01
aI01
asg44
(lp407
I00
aI00
aI00
aI00
asg46
I00
sg47
g31
sg48
I5
sa(dp408
g40
(I65
I50
tp409
sg42
(lp410
I01
aI01
aI01
aI01
aI01
aI01
asg44
(lp411
I00
aI00
aI00
aI00
asg46
I00
sg47
g36
sg48
I5
saa(lp412
(dp413
g221
(I55
I59
tp414
sg223
(lp415
I01
aI01
aI00
aI00
aI01
aI00
asg225
(lp416
I00
aI00
aI00
aI01
asg227
I01
sg228
g9
sg229
I49
sa(dp417
g221
(I65
I50
tp418
sg223
(lp419
I01
aI01
aI01
aI01
aI01
aI01
asg225
(lp420
I00
aI00
aI00
aI00
asg227
I00
sg228
g16
sg229
I5
sa(dp421
g221
(I65
I50
tp422
sg223
(lp423
I01
aI01
aI01
aI01
aI01
aI01
asg225
(lp424
I00
aI00
aI00
aI00
asg227
I00
sg228
g21
sg229
I5
sa(dp425
g221
(I65
I50
tp426
sg223
(lp427
I01
aI01
aI01
aI01
aI01
aI01
asg225
(lp428
I00
aI00
aI00
aI00
asg227
I00
sg228
g26
sg229
I5
sa(dp429
g221
(I65
I50
tp430
sg223
(lp431
I01
aI01
aI01
aI01
aI01
aI01
asg225
(lp432
I00
aI00
aI00
aI00
asg227
I00
sg228
g31
sg229
I5
sa(dp433
g221
(I65
I50
tp434
sg223
(lp435
I01
aI01
aI01
aI01
aI01
aI01
asg225
(lp436
I00
aI00
aI00
aI00
asg227
I00
sg228
g36
sg229
I5
saa(lp437
(dp438
g40
(I75
I60
tp439
sg42
(lp440
I01
aI01
aI00
aI00
aI00
aI01
asg44
(lp441
I00
aI00
aI00
aI01
asg46
I01
sg47
g9
sg48
I43
sa(dp442
g40
(I65
I50
tp443
sg42
(lp444
I01
aI01
aI01
aI01
aI01
aI01
asg44
(lp445
I00
aI00
aI00
aI00
asg46
I00
sg47
g16
sg48
I5
sa(dp446
g40
(I65
I50
tp447
sg42
(lp448
I01
aI01
aI01
aI01
aI01
aI01
asg44
(lp449
I00
aI00
aI00
aI00
asg46
I00
sg47
g21
sg48
I5
sa(dp450
g40
(I65
I50
tp451
sg42
(lp452
I01
aI01
aI01
aI01
aI01
aI01
asg44
(lp453
I00
aI00
aI00
aI00
asg46
I00
sg47
g26
sg48
I5
sa(dp454
g40
(I65
I50
tp455
sg42
(lp456
I01
aI01
aI01
aI01
aI01
aI01
asg44
(lp457
I00
aI00
aI00
aI00
asg46
I00
sg47
g31
sg48
I5
sa(dp458
g40
(I65
I50
tp459
sg42
(lp460
I01
aI01
aI01
aI01
aI01
aI01
asg44
(lp461
I00
aI00
aI00
aI00
asg46
I00
sg47
g36
sg48
I5
saa(lp462
(dp463
g221
(I65
I50
tp464
sg223
(lp465
I01
aI01
aI01
aI01
aI01
aI01
asg225
(lp466
I00
aI00
aI01
aI00
asg227
I01
sg228
g9
sg229
I10
sa(dp467
g221
(I65
I50
tp468
sg223
(lp469
I01
aI01
aI01
aI01
aI01
aI01
asg225
(lp470
I00
aI00
aI00
aI00
asg227
I00
sg228
g16
sg229
I12
sa(dp471
g221
(I65
I50
tp472
sg223
(lp473
I01
aI01
aI01
aI01
aI01
aI01
asg225
(lp474
I00
aI00
aI00
aI00
asg227
I00
sg228
g21
sg229
I12
sa(dp475
g221
(I65
I50
tp476
sg223
(lp477
I01
aI01
aI01
aI01
aI01
aI01
asg225
(lp478
I00
aI00
aI00
aI00
asg227
I00
sg228
g26
sg229
I5
sa(dp479
g221
(I65
I50
tp480
sg223
(lp481
I01
aI01
aI01
aI01
aI01
aI01
asg225
(lp482
I00
aI00
aI00
aI00
asg227
I00
sg228
g31
sg229
I5
sa(dp483
g221
(I65
I50
tp484
sg223
(lp485
I01
aI01
aI01
aI01
aI01
aI01
asg225
(lp486
I00
aI00
aI00
aI00
asg227
I00
sg228
g36
sg229
I5
saa(lp487
(dp488
S'head_position'
p489
(I65
I50
tp490
sS'speakers'
p491
(lp492
I01
aI01
aI01
aI01
aI00
aI00
asS'inputs'
p493
(lp494
I00
aI01
aI00
aI00
asS'mute'
p495
I01
sS'base_url'
p496
g9
sS'master'
p497
I59
sa(dp498
g489
(I65
I50
tp499
sg491
(lp500
I01
aI01
aI01
aI01
aI01
aI01
asg493
(lp501
I00
aI00
aI00
aI00
asg495
I00
sg496
g16
sg497
I5
sa(dp502
g489
(I65
I50
tp503
sg491
(lp504
I01
aI01
aI01
aI01
aI01
aI01
asg493
(lp505
I00
aI00
aI00
aI00
asg495
I00
sg496
g21
sg497
I5
sa(dp506
g489
(I65
I50
tp507
sg491
(lp508
I01
aI01
aI01
aI01
aI01
aI01
asg493
(lp509
I00
aI00
aI00
aI00
asg495
I00
sg496
g26
sg497
I5
sa(dp510
g489
(I65
I50
tp511
sg491
(lp512
I01
aI01
aI01
aI01
aI01
aI01
asg493
(lp513
I00
aI00
aI00
aI00
asg495
I00
sg496
g31
sg497
I5
sa(dp514
g489
(I65
I50
tp515
sg491
(lp516
I01
aI01
aI01
aI01
aI01
aI01
asg493
(lp517
I00
aI00
aI00
aI00
asg495
I00
sg496
g36
sg497
I5
saa(lp518
(dp519
g40
(I64
I38
tp520
sg42
(lp521
I01
aI01
aI01
aI01
aI00
aI00
asg44
(lp522
I00
aI00
aI01
aI00
asg46
I01
sg47
g9
sg48
I44
sa(dp523
g40
(I65
I50
tp524
sg42
(lp525
I01
aI01
aI01
aI01
aI01
aI01
asg44
(lp526
I00
aI00
aI00
aI00
asg46
I00
sg47
g16
sg48
I5
sa(dp527
g40
(I65
I50
tp528
sg42
(lp529
I01
aI01
aI01
aI01
aI01
aI01
asg44
(lp530
I00
aI00
aI00
aI00
asg46
I00
sg47
g21
sg48
I5
sa(dp531
g40
(I65
I50
tp532
sg42
(lp533
I01
aI01
aI01
aI01
aI01
aI01
asg44
(lp534
I00
aI00
aI00
aI00
asg46
I00
sg47
g26
sg48
I5
sa(dp535
g40
(I65
I50
tp536
sg42
(lp537
I01
aI01
aI01
aI01
aI01
aI01
asg44
(lp538
I00
aI00
aI00
aI00
asg46
I00
sg47
g31
sg48
I5
sa(dp539
g40
(I65
I50
tp540
sg42
(lp541
I01
aI01
aI01
aI01
aI01
aI01
asg44
(lp542
I00
aI00
aI00
aI00
asg46
I00
sg47
g36
sg48
I5
saa(lp543
(dp544
g40
(I64
I44
tp545
sg42
(lp546
I01
aI01
aI00
aI00
aI01
aI01
asg44
(lp547
I00
aI00
aI00
aI01
asg46
I00
sg47
g9
sg48
I10
sa(dp548
g40
(I65
I50
tp549
sg42
(lp550
I01
aI01
aI01
aI01
aI01
aI01
asg44
(lp551
I00
aI00
aI00
aI00
asg46
I00
sg47
g16
sg48
I5
sa(dp552
g40
(I65
I50
tp553
sg42
(lp554
I01
aI01
aI01
aI01
aI01
aI01
asg44
(lp555
I00
aI00
aI00
aI00
asg46
I00
sg47
g21
sg48
I5
sa(dp556
g40
(I65
I50
tp557
sg42
(lp558
I01
aI01
aI01
aI01
aI01
aI01
asg44
(lp559
I00
aI00
aI00
aI00
asg46
I00
sg47
g26
sg48
I5
sa(dp560
g40
(I65
I50
tp561
sg42
(lp562
I01
aI01
aI01
aI01
aI01
aI01
asg44
(lp563
I00
aI00
aI00
aI00
asg46
I00
sg47
g31
sg48
I5
sa(dp564
g40
(I65
I50
tp565
sg42
(lp566
I01
aI01
aI01
aI01
aI01
aI01
asg44
(lp567
I00
aI00
aI00
aI00
asg46
I00
sg47
g36
sg48
I5
saa(lp568
(dp569
g40
(I53
I63
tp570
sg42
(lp571
I01
aI01
aI00
aI00
aI01
aI00
asg44
(lp572
I00
aI00
aI00
aI01
asg46
I01
sg47
g9
sg48
I45
sa(dp573
g40
(I65
I50
tp574
sg42
(lp575
I01
aI01
aI01
aI01
aI01
aI01
asg44
(lp576
I00
aI00
aI00
aI00
asg46
I00
sg47
g16
sg48
I5
sa(dp577
g40
(I65
I50
tp578
sg42
(lp579
I01
aI01
aI01
aI01
aI01
aI01
asg44
(lp580
I00
aI00
aI00
aI00
asg46
I00
sg47
g21
sg48
I5
sa(dp581
g40
(I65
I50
tp582
sg42
(lp583
I01
aI01
aI01
aI01
aI01
aI01
asg44
(lp584
I00
aI00
aI00
aI00
asg46
I00
sg47
g26
sg48
I5
sa(dp585
g40
(I65
I50
tp586
sg42
(lp587
I01
aI01
aI01
aI01
aI01
aI01
asg44
(lp588
I00
aI00
aI00
aI00
asg46
I00
sg47
g31
sg48
I5
sa(dp589
g40
(I65
I50
tp590
sg42
(lp591
I01
aI01
aI01
aI01
aI01
aI01
asg44
(lp592
I00
aI00
aI00
aI00
asg46
I00
sg47
g36
sg48
I5
saa(lp593
(dp594
g252
(I54
I50
tp595
sg254
(lp596
I01
aI01
aI00
aI00
aI01
aI01
asg256
I01
sg257
g9
sg258
(lp597
I00
aI00
aI00
aI01
asg260
I16
sa(dp598
g252
(I65
I21
tp599
sg254
(lp600
I01
aI01
aI01
aI01
aI00
aI00
asg256
I01
sg257
g16
sg258
(lp601
I00
aI01
aI00
aI00
asg260
I71
sa(dp602
g252
(I77
I35
tp603
sg254
(lp604
I01
aI01
aI00
aI00
aI01
aI01
asg256
I01
sg257
g21
sg258
(lp605
I00
aI00
aI01
aI00
asg260
I11
sa(dp606
g252
(I66
I18
tp607
sg254
(lp608
I01
aI01
aI01
aI01
aI00
aI00
asg256
I00
sg257
g26
sg258
(lp609
I00
aI00
aI00
aI00
asg260
I5
sa(dp610
g252
(I65
I50
tp611
sg254
(lp612
I01
aI01
aI01
aI01
aI01
aI01
asg256
I00
sg257
g31
sg258
(lp613
I00
aI00
aI00
aI00
asg260
I5
sa(dp614
g252
(I65
I50
tp615
sg254
(lp616
I01
aI01
aI01
aI01
aI01
aI01
asg256
I00
sg257
g36
sg258
(lp617
I00
aI00
aI00
aI00
asg260
I5
saa(lp618
(dp619
g40
(I78
I61
tp620
sg42
(lp621
I01
aI01
aI00
aI00
aI00
aI01
asg44
(lp622
I00
aI00
aI00
aI01
asg46
I01
sg47
g9
sg48
I43
sa(dp623
g40
(I65
I50
tp624
sg42
(lp625
I01
aI01
aI01
aI01
aI01
aI01
asg44
(lp626
I00
aI00
aI00
aI00
asg46
I00
sg47
g16
sg48
I5
sa(dp627
g40
(I65
I50
tp628
sg42
(lp629
I01
aI01
aI01
aI01
aI01
aI01
asg44
(lp630
I00
aI00
aI00
aI00
asg46
I00
sg47
g21
sg48
I5
sa(dp631
g40
(I65
I50
tp632
sg42
(lp633
I01
aI01
aI01
aI01
aI01
aI01
asg44
(lp634
I00
aI00
aI00
aI00
asg46
I00
sg47
g26
sg48
I5
sa(dp635
g40
(I65
I50
tp636
sg42
(lp637
I01
aI01
aI01
aI01
aI01
aI01
asg44
(lp638
I00
aI00
aI00
aI00
asg46
I00
sg47
g31
sg48
I5
sa(dp639
g40
(I65
I50
tp640
sg42
(lp641
I01
aI01
aI01
aI01
aI01
aI01
asg44
(lp642
I00
aI00
aI00
aI00
asg46
I00
sg47
g36
sg48
I5
saa(lp643
(dp644
S'head_position'
p645
(I66
I19
tp646
sS'speakers'
p647
(lp648
I01
aI01
aI00
aI00
aI00
aI00
asS'mute'
p649
I01
sS'base_url'
p650
g9
sS'inputs'
p651
(lp652
I00
aI00
aI01
aI00
asS'master'
p653
I10
sa(dp654
g645
(I18
I3
tp655
sg647
(lp656
I01
aI00
aI00
aI00
aI00
aI00
asg649
I01
sg650
g16
sg651
(lp657
I00
aI00
aI01
aI00
asg653
I6
sa(dp658
g645
(I65
I52
tp659
sg647
(lp660
I01
aI01
aI01
aI01
aI01
aI01
asg649
I00
sg650
g21
sg651
(lp661
I00
aI00
aI00
aI00
asg653
I5
sa(dp662
g645
(I65
I50
tp663
sg647
(lp664
I01
aI01
aI01
aI01
aI01
aI01
asg649
I00
sg650
g26
sg651
(lp665
I00
aI00
aI00
aI00
asg653
I5
sa(dp666
g645
(I65
I50
tp667
sg647
(lp668
I01
aI01
aI01
aI01
aI01
aI01
asg649
I00
sg650
g31
sg651
(lp669
I00
aI00
aI00
aI00
asg653
I5
sa(dp670
g645
(I65
I50
tp671
sg647
(lp672
I01
aI01
aI01
aI01
aI01
aI01
asg649
I00
sg650
g36
sg651
(lp673
I00
aI00
aI00
aI00
asg653
I5
saa(lp674
(dp675
g221
(I55
I62
tp676
sg223
(lp677
I01
aI01
aI00
aI00
aI01
aI00
asg225
(lp678
I00
aI00
aI00
aI01
asg227
I01
sg228
g9
sg229
I45
sa(dp679
g221
(I65
I50
tp680
sg223
(lp681
I01
aI01
aI01
aI01
aI01
aI01
asg225
(lp682
I00
aI00
aI00
aI00
asg227
I00
sg228
g16
sg229
I5
sa(dp683
g221
(I65
I50
tp684
sg223
(lp685
I01
aI01
aI01
aI01
aI01
aI01
asg225
(lp686
I00
aI00
aI00
aI00
asg227
I00
sg228
g21
sg229
I5
sa(dp687
g221
(I65
I50
tp688
sg223
(lp689
I01
aI01
aI01
aI01
aI01
aI01
asg225
(lp690
I00
aI00
aI00
aI00
asg227
I00
sg228
g26
sg229
I5
sa(dp691
g221
(I65
I50
tp692
sg223
(lp693
I01
aI01
aI01
aI01
aI01
aI01
asg225
(lp694
I00
aI00
aI00
aI00
asg227
I00
sg228
g31
sg229
I5
sa(dp695
g221
(I65
I50
tp696
sg223
(lp697
I01
aI01
aI01
aI01
aI01
aI01
asg225
(lp698
I00
aI00
aI00
aI00
asg227
I00
sg228
g36
sg229
I5
saa(lp699
(dp700
g40
(I66
I30
tp701
sg42
(lp702
I01
aI01
aI01
aI01
aI00
aI00
asg44
(lp703
I00
aI00
aI01
aI00
asg46
I01
sg47
g9
sg48
I38
sa(dp704
g40
(I67
I25
tp705
sg42
(lp706
I01
aI01
aI00
aI00
aI00
aI01
asg44
(lp707
I00
aI00
aI00
aI01
asg46
I01
sg47
g16
sg48
I11
sa(dp708
g40
(I65
I52
tp709
sg42
(lp710
I01
aI01
aI01
aI01
aI01
aI01
asg44
(lp711
I00
aI00
aI00
aI00
asg46
I00
sg47
g21
sg48
I5
sa(dp712
g40
(I65
I48
tp713
sg42
(lp714
I01
aI01
aI01
aI01
aI01
aI01
asg44
(lp715
I00
aI00
aI00
aI00
asg46
I00
sg47
g26
sg48
I5
sa(dp716
g40
(I65
I50
tp717
sg42
(lp718
I01
aI01
aI01
aI01
aI01
aI01
asg44
(lp719
I00
aI00
aI00
aI00
asg46
I00
sg47
g31
sg48
I5
sa(dp720
g40
(I65
I50
tp721
sg42
(lp722
I01
aI01
aI01
aI01
aI01
aI01
asg44
(lp723
I00
aI00
aI00
aI00
asg46
I00
sg47
g36
sg48
I5
saa(lp724
(dp725
g40
(I77
I61
tp726
sg42
(lp727
I01
aI01
aI00
aI00
aI00
aI01
asg44
(lp728
I00
aI00
aI00
aI01
asg46
I01
sg47
g9
sg48
I45
sa(dp729
g40
(I65
I50
tp730
sg42
(lp731
I01
aI01
aI01
aI01
aI01
aI01
asg44
(lp732
I00
aI00
aI00
aI00
asg46
I00
sg47
g16
sg48
I5
sa(dp733
g40
(I65
I50
tp734
sg42
(lp735
I01
aI01
aI01
aI01
aI01
aI01
asg44
(lp736
I00
aI00
aI00
aI00
asg46
I00
sg47
g21
sg48
I5
sa(dp737
g40
(I65
I50
tp738
sg42
(lp739
I01
aI01
aI01
aI01
aI01
aI01
asg44
(lp740
I00
aI00
aI00
aI00
asg46
I00
sg47
g26
sg48
I5
sa(dp741
g40
(I65
I50
tp742
sg42
(lp743
I01
aI01
aI01
aI01
aI01
aI01
asg44
(lp744
I00
aI00
aI00
aI00
asg46
I00
sg47
g31
sg48
I5
sa(dp745
g40
(I65
I50
tp746
sg42
(lp747
I01
aI01
aI01
aI01
aI01
aI01
asg44
(lp748
I00
aI00
aI00
aI00
asg46
I00
sg47
g36
sg48
I5
saa(lp749
(dp750
g645
(I76
I40
tp751
sg647
(lp752
I01
aI01
aI00
aI00
aI00
aI01
asg649
I01
sg650
g9
sg651
(lp753
I00
aI00
aI01
aI00
asg653
I16
sa(dp754
g645
(I65
I50
tp755
sg647
(lp756
I01
aI01
aI01
aI01
aI01
aI01
asg649
I00
sg650
g16
sg651
(lp757
I00
aI00
aI00
aI00
asg653
I5
sa(dp758
g645
(I65
I50
tp759
sg647
(lp760
I01
aI01
aI01
aI01
aI01
aI01
asg649
I00
sg650
g21
sg651
(lp761
I00
aI00
aI00
aI00
asg653
I5
sa(dp762
g645
(I65
I50
tp763
sg647
(lp764
I01
aI01
aI01
aI01
aI01
aI01
asg649
I00
sg650
g26
sg651
(lp765
I00
aI00
aI00
aI00
asg653
I5
sa(dp766
g645
(I65
I50
tp767
sg647
(lp768
I01
aI01
aI01
aI01
aI01
aI01
asg649
I00
sg650
g31
sg651
(lp769
I00
aI00
aI00
aI00
asg653
I5
sa(dp770
g645
(I65
I50
tp771
sg647
(lp772
I01
aI01
aI01
aI01
aI01
aI01
asg649
I00
sg650
g36
sg651
(lp773
I00
aI00
aI00
aI00
asg653
I5
saa(lp774
(dp775
S'head_position'
p776
(I65
I50
tp777
sS'speakers'
p778
(lp779
I01
aI01
aI01
aI01
aI01
aI01
asS'inputs'
p780
(lp781
I00
aI00
aI00
aI00
asS'mute'
p782
I00
sS'base_url'
p783
g9
sS'master'
p784
I5
sa(dp785
g776
(I65
I50
tp786
sg778
(lp787
I01
aI01
aI01
aI01
aI01
aI01
asg780
(lp788
I00
aI00
aI00
aI00
asg782
I00
sg783
g16
sg784
I5
sa(dp789
g776
(I65
I50
tp790
sg778
(lp791
I01
aI01
aI01
aI01
aI01
aI01
asg780
(lp792
I00
aI00
aI00
aI00
asg782
I00
sg783
g21
sg784
I5
sa(dp793
g776
(I65
I50
tp794
sg778
(lp795
I01
aI01
aI01
aI01
aI01
aI01
asg780
(lp796
I00
aI00
aI00
aI00
asg782
I00
sg783
g26
sg784
I5
sa(dp797
g776
(I65
I50
tp798
sg778
(lp799
I01
aI01
aI01
aI01
aI01
aI01
asg780
(lp800
I00
aI00
aI00
aI00
asg782
I00
sg783
g31
sg784
I5
sa(dp801
g776
(I65
I50
tp802
sg778
(lp803
I01
aI01
aI01
aI01
aI01
aI01
asg780
(lp804
I00
aI00
aI00
aI00
asg782
I00
sg783
g36
sg784
I5
saa.